; Function Attrs: mustprogress nounwind uwtable
define internal void @_ZN12_GLOBAL__N_123OffloadingActionBuilder19DeviceActionBuilderD2Ev(ptr noundef nonnull align 8 dereferenceable(68) %0) unnamed_addr #0 align 2 {
  store ptr getelementptr inbounds inrange(-16, 80) (i8, ptr @_ZTVN12_GLOBAL__N_123OffloadingActionBuilder19DeviceActionBuilderE, i64 16), ptr %0, align 8
  %2 = getelementptr inbounds nuw i8, ptr %0, i64 16
  %3 = tail call noundef i64 @_ZNK4llvm15SmallVectorBaseIjE4sizeEv(ptr noundef nonnull align 8 dereferenceable(16) %2) #30
  %4 = load ptr, ptr %2, align 8
  %5 = getelementptr inbounds i8, ptr %0, i64 32
  %6 = icmp eq ptr %4, %5
  br i1 %6, label %_ZN4llvm11SmallVectorIPKN5clang6driver9ToolChainELj2EED2Ev.exit, label %7

7:                                                ; preds = %1
  tail call void @free(ptr noundef %4) #30
  br label %_ZN4llvm11SmallVectorIPKN5clang6driver9ToolChainELj2EED2Ev.exit

_ZN4llvm11SmallVectorIPKN5clang6driver9ToolChainELj2EED2Ev.exit: ; preds = %1, %7
  ret void
}